target datalayout = "e-m:e-p270:32:32-p271:32:32-p272:64:64-i64:64-i128:128-f80:128-n8:16:32:64-S128"
target triple = "x86_64-pc-linux-gnu"

; Function Attrs: inlinehint nounwind sspstrong willreturn memory(none) uwtable
define internal zeroext i1 @RB_NIL_P(i64 noundef %0) #1 {
  %2 = alloca i64, align 8
  store i64 %0, ptr %2, align 8, !tbaa !11
  %3 = load i64, ptr %2, align 8, !tbaa !11
  %4 = icmp eq i64 %3, 4
  ret i1 %4
}

; Function Attrs: nounwind sspstrong uwtable
define dso_local i64 @rb_Array(i64 noundef %0) #0 {
  %2 = alloca i64, align 8
  %3 = alloca i64, align 8
  %4 = alloca i64, align 8
  %5 = alloca i32, align 4
  store i64 %0, ptr %3, align 8, !tbaa !11
  call void @llvm.lifetime.start.p0(i64 8, ptr %4) #28
  %6 = load i64, ptr %3, align 8, !tbaa !11
  %7 = call i64 @rb_check_array_type(i64 noundef %6)
  store i64 %7, ptr %4, align 8, !tbaa !11
  %8 = load i64, ptr %4, align 8, !tbaa !11
  %9 = call zeroext i1 @RB_NIL_P(i64 noundef %8) #27
  br i1 %9, label %10, label %19

10:                                               ; preds = %1
  %11 = load i64, ptr %3, align 8, !tbaa !11
  %12 = call i64 @rb_check_to_array(i64 noundef %11)
  store i64 %12, ptr %4, align 8, !tbaa !11
  %13 = load i64, ptr %4, align 8, !tbaa !11
  %14 = call zeroext i1 @RB_NIL_P(i64 noundef %13) #27
  br i1 %14, label %15, label %18

15:                                               ; preds = %10
  %16 = load i64, ptr %3, align 8, !tbaa !11
  %17 = call i64 (i64, ...) @rb_ary_new_from_args(i64 noundef 1, i64 noundef %16)
  store i64 %17, ptr %2, align 8
  store i32 1, ptr %5, align 4
  br label %21

18:                                               ; preds = %10
  br label %19

19:                                               ; preds = %18, %1
  %20 = load i64, ptr %4, align 8, !tbaa !11
  store i64 %20, ptr %2, align 8
  store i32 1, ptr %5, align 4
  br label %21

21:                                               ; preds = %19, %15
  call void @llvm.lifetime.end.p0(i64 8, ptr %4) #28
  %22 = load i64, ptr %2, align 8
  ret i64 %22
}

; Function Attrs: nounwind sspstrong uwtable
define internal i64 @rb_f_array(i64 noundef %0, i64 noundef %1) #0 {
  %3 = alloca i64, align 8
  %4 = alloca i64, align 8
  store i64 %0, ptr %3, align 8, !tbaa !11
  store i64 %1, ptr %4, align 8, !tbaa !11
  %5 = load i64, ptr %4, align 8, !tbaa !11
  %6 = call i64 @rb_Array(i64 noundef %5)
  ret i64 %6
}