; Function Attrs: nounwind sspstrong uwtable
define internal i64 @rb_f_array(i64 %0, i64 noundef %1) #2 {
  %3 = tail call i64 @rb_check_array_type(i64 noundef %1) #23
  %4 = icmp eq i64 %3, 4
  br i1 %4, label %5, label %rb_Array.exit

5:                                                ; preds = %2
  %6 = tail call i64 @rb_check_to_array(i64 noundef %1) #23
  %7 = icmp eq i64 %6, 4
  br i1 %7, label %8, label %rb_Array.exit

8:                                                ; preds = %5
  %9 = tail call i64 (i64, ...) @rb_ary_new_from_args(i64 noundef 1, i64 noundef %1) #23
  br label %rb_Array.exit

rb_Array.exit:                                    ; preds = %2, %5, %8
  %.07.i = phi i64 [ %9, %8 ], [ %6, %5 ], [ %3, %2 ]
  ret i64 %.07.i
}